ccopy_reg
_reconstructor
p0
(cpaillier.paillier
PrivateKey
p1
c__builtin__
object
p2
Ntp3
Rp4
(dp5
S'm'
p6
L48292420956720787412999464579020918604429342981343952056062735565143000721038L
sS'l'
p7
L69438896767230047458765048401037407909800987643622050093840174440577425942112L
sb.
