ccopy_reg
_reconstructor
p0
(cpaillier.paillier
PrivateKey
p1
c__builtin__
object
p2
Ntp3
Rp4
(dp5
S'm'
p6
L79202141761355562579344782316948566307260581793095167430243712833790554017352L
sS'l'
p7
L79847358826456845914832899435752618141643561026777106661901090474507200528640L
sb.