ccopy_reg
_reconstructor
p0
(cpaillier.paillier
PrivateKey
p1
c__builtin__
object
p2
Ntp3
Rp4
(dp5
S'm'
p6
L113441022009318883580396099401021601286L
sS'l'
p7
L154310298345067770463086753284075177568L
sb.