ccopy_reg
_reconstructor
p0
(cpaillier.paillier
PublicKey
p1
c__builtin__
object
p2
Ntp3
Rp4
(dp5
S'n_sq'
p6
L23811668175343825107783592854776158680635117291825806701596524523161715624569L
sS'g'
p7
L154310298345067770489017611204777873164L
sS'n'
p8
L154310298345067770489017611204777873163L
sb.